; Function Attrs: mustprogress nofree norecurse nounwind willreturn memory(readwrite, inaccessiblemem: none) uwtable
define noundef nonnull align 8 dereferenceable(16) ptr @_ZNK32pxrInternal_v0_24__pxrReserved__6TfType9GetTypeidEv(ptr noundef nonnull readonly align 8 captures(none) dereferenceable(8) %0) local_unnamed_addr #13 align 2 {
  %2 = load ptr, ptr %0, align 8
  %3 = getelementptr inbounds nuw i8, ptr %2, i64 48
  %4 = load atomic i64, ptr %3 seq_cst, align 8
  %5 = inttoptr i64 %4 to ptr
  %.not = icmp eq i64 %4, 0
  %6 = select i1 %.not, ptr @_ZTIv, ptr %5
  ret ptr %6
}